target datalayout = "e-m:e-p270:32:32-p271:32:32-p272:64:64-i64:64-f80:128-n8:16:32:64-S128"
target triple = "x86_64-pc-linux-gnu"

@.str = private unnamed_addr constant [3 x i8] c"%d\00", align 1
@.str.1 = private unnamed_addr constant [3 x i8] c"0\0A\00", align 1
@.str.2 = private unnamed_addr constant [3 x i8] c"1\0A\00", align 1
@.str.3 = private unnamed_addr constant [2 x i8] c"0\00", align 1
@.str.4 = private unnamed_addr constant [2 x i8] c"1\00", align 1

; Function Attrs: noinline nounwind uwtable
define dso_local void @main() #0 {
  %1 = alloca i32, align 4
  %2 = alloca i32, align 4
  %3 = alloca i32, align 4
  %4 = alloca i32, align 4
  %5 = alloca [100 x [100 x i8]], align 16
  %6 = call i32 (i8*, ...) @__isoc99_scanf(i8* getelementptr inbounds ([3 x i8], [3 x i8]* @.str, i64 0, i64 0), i32* %1)
  %7 = getelementptr inbounds [100 x [100 x i8]], [100 x [100 x i8]]* %5, i64 0, i64 0
  %8 = getelementptr inbounds [100 x i8], [100 x i8]* %7, i64 0, i64 0
  %9 = call i32 (i8*, ...) bitcast (i32 (...)* @gets to i32 (i8*, ...)*)(i8* %8)
  store i32 0, i32* %2, align 4
  br label %10

10:                                               ; preds = %20, %0
  %11 = load i32, i32* %2, align 4
  %12 = load i32, i32* %1, align 4
  %13 = icmp slt i32 %11, %12
  br i1 %13, label %14, label %23

14:                                               ; preds = %10
  %15 = load i32, i32* %2, align 4
  %16 = sext i32 %15 to i64
  %17 = getelementptr inbounds [100 x [100 x i8]], [100 x [100 x i8]]* %5, i64 0, i64 %16
  %18 = getelementptr inbounds [100 x i8], [100 x i8]* %17, i64 0, i64 0
  %19 = call i32 (i8*, ...) bitcast (i32 (...)* @gets to i32 (i8*, ...)*)(i8* %18)
  br label %20

20:                                               ; preds = %14
  %21 = load i32, i32* %2, align 4
  %22 = add nsw i32 %21, 1
  store i32 %22, i32* %2, align 4
  br label %10

23:                                               ; preds = %10
  store i32 0, i32* %2, align 4
  br label %24

24:                                               ; preds = %182, %23
  %25 = load i32, i32* %2, align 4
  %26 = load i32, i32* %1, align 4
  %27 = sub nsw i32 %26, 1
  %28 = icmp slt i32 %25, %27
  br i1 %28, label %29, label %185

29:                                               ; preds = %24
  store i32 1, i32* %4, align 4
  store i32 0, i32* %3, align 4
  br label %30

30:                                               ; preds = %173, %29
  %31 = load i32, i32* %2, align 4
  %32 = sext i32 %31 to i64
  %33 = getelementptr inbounds [100 x [100 x i8]], [100 x [100 x i8]]* %5, i64 0, i64 %32
  %34 = load i32, i32* %3, align 4
  %35 = sext i32 %34 to i64
  %36 = getelementptr inbounds [100 x i8], [100 x i8]* %33, i64 0, i64 %35
  %37 = load i8, i8* %36, align 1
  %38 = sext i8 %37 to i32
  %39 = icmp ne i32 %38, 0
  br i1 %39, label %40, label %176

40:                                               ; preds = %30
  %41 = load i32, i32* %3, align 4
  %42 = icmp eq i32 %41, 0
  br i1 %42, label %43, label %96

43:                                               ; preds = %40
  %44 = load i32, i32* %2, align 4
  %45 = sext i32 %44 to i64
  %46 = getelementptr inbounds [100 x [100 x i8]], [100 x [100 x i8]]* %5, i64 0, i64 %45
  %47 = load i32, i32* %3, align 4
  %48 = sext i32 %47 to i64
  %49 = getelementptr inbounds [100 x i8], [100 x i8]* %46, i64 0, i64 %48
  %50 = load i8, i8* %49, align 1
  %51 = sext i8 %50 to i32
  %52 = icmp sgt i32 %51, 122
  br i1 %52, label %63, label %53

53:                                               ; preds = %43
  %54 = load i32, i32* %2, align 4
  %55 = sext i32 %54 to i64
  %56 = getelementptr inbounds [100 x [100 x i8]], [100 x [100 x i8]]* %5, i64 0, i64 %55
  %57 = load i32, i32* %3, align 4
  %58 = sext i32 %57 to i64
  %59 = getelementptr inbounds [100 x i8], [100 x i8]* %56, i64 0, i64 %58
  %60 = load i8, i8* %59, align 1
  %61 = sext i8 %60 to i32
  %62 = icmp slt i32 %61, 97
  br i1 %62, label %63, label %95

63:                                               ; preds = %53, %43
  %64 = load i32, i32* %2, align 4
  %65 = sext i32 %64 to i64
  %66 = getelementptr inbounds [100 x [100 x i8]], [100 x [100 x i8]]* %5, i64 0, i64 %65
  %67 = load i32, i32* %3, align 4
  %68 = sext i32 %67 to i64
  %69 = getelementptr inbounds [100 x i8], [100 x i8]* %66, i64 0, i64 %68
  %70 = load i8, i8* %69, align 1
  %71 = sext i8 %70 to i32
  %72 = icmp sgt i32 %71, 90
  br i1 %72, label %83, label %73

73:                                               ; preds = %63
  %74 = load i32, i32* %2, align 4
  %75 = sext i32 %74 to i64
  %76 = getelementptr inbounds [100 x [100 x i8]], [100 x [100 x i8]]* %5, i64 0, i64 %75
  %77 = load i32, i32* %3, align 4
  %78 = sext i32 %77 to i64
  %79 = getelementptr inbounds [100 x i8], [100 x i8]* %76, i64 0, i64 %78
  %80 = load i8, i8* %79, align 1
  %81 = sext i8 %80 to i32
  %82 = icmp slt i32 %81, 65
  br i1 %82, label %83, label %95

83:                                               ; preds = %73, %63
  %84 = load i32, i32* %2, align 4
  %85 = sext i32 %84 to i64
  %86 = getelementptr inbounds [100 x [100 x i8]], [100 x [100 x i8]]* %5, i64 0, i64 %85
  %87 = load i32, i32* %3, align 4
  %88 = sext i32 %87 to i64
  %89 = getelementptr inbounds [100 x i8], [100 x i8]* %86, i64 0, i64 %88
  %90 = load i8, i8* %89, align 1
  %91 = sext i8 %90 to i32
  %92 = icmp ne i32 %91, 95
  br i1 %92, label %93, label %95

93:                                               ; preds = %83
  %94 = call i32 (i8*, ...) @printf(i8* getelementptr inbounds ([3 x i8], [3 x i8]* @.str.1, i64 0, i64 0))
  store i32 0, i32* %4, align 4
  br label %176

95:                                               ; preds = %83, %73, %53
  br label %96

96:                                               ; preds = %95, %40
  %97 = load i32, i32* %3, align 4
  %98 = icmp ne i32 %97, 0
  br i1 %98, label %99, label %172

99:                                               ; preds = %96
  %100 = load i32, i32* %2, align 4
  %101 = sext i32 %100 to i64
  %102 = getelementptr inbounds [100 x [100 x i8]], [100 x [100 x i8]]* %5, i64 0, i64 %101
  %103 = load i32, i32* %3, align 4
  %104 = sext i32 %103 to i64
  %105 = getelementptr inbounds [100 x i8], [100 x i8]* %102, i64 0, i64 %104
  %106 = load i8, i8* %105, align 1
  %107 = sext i8 %106 to i32
  %108 = icmp sgt i32 %107, 122
  br i1 %108, label %119, label %109

109:                                              ; preds = %99
  %110 = load i32, i32* %2, align 4
  %111 = sext i32 %110 to i64
  %112 = getelementptr inbounds [100 x [100 x i8]], [100 x [100 x i8]]* %5, i64 0, i64 %111
  %113 = load i32, i32* %3, align 4
  %114 = sext i32 %113 to i64
  %115 = getelementptr inbounds [100 x i8], [100 x i8]* %112, i64 0, i64 %114
  %116 = load i8, i8* %115, align 1
  %117 = sext i8 %116 to i32
  %118 = icmp slt i32 %117, 97
  br i1 %118, label %119, label %171

119:                                              ; preds = %109, %99
  %120 = load i32, i32* %2, align 4
  %121 = sext i32 %120 to i64
  %122 = getelementptr inbounds [100 x [100 x i8]], [100 x [100 x i8]]* %5, i64 0, i64 %121
  %123 = load i32, i32* %3, align 4
  %124 = sext i32 %123 to i64
  %125 = getelementptr inbounds [100 x i8], [100 x i8]* %122, i64 0, i64 %124
  %126 = load i8, i8* %125, align 1
  %127 = sext i8 %126 to i32
  %128 = icmp sgt i32 %127, 90
  br i1 %128, label %139, label %129

129:                                              ; preds = %119
  %130 = load i32, i32* %2, align 4
  %131 = sext i32 %130 to i64
  %132 = getelementptr inbounds [100 x [100 x i8]], [100 x [100 x i8]]* %5, i64 0, i64 %131
  %133 = load i32, i32* %3, align 4
  %134 = sext i32 %133 to i64
  %135 = getelementptr inbounds [100 x i8], [100 x i8]* %132, i64 0, i64 %134
  %136 = load i8, i8* %135, align 1
  %137 = sext i8 %136 to i32
  %138 = icmp slt i32 %137, 65
  br i1 %138, label %139, label %171

139:                                              ; preds = %129, %119
  %140 = load i32, i32* %2, align 4
  %141 = sext i32 %140 to i64
  %142 = getelementptr inbounds [100 x [100 x i8]], [100 x [100 x i8]]* %5, i64 0, i64 %141
  %143 = load i32, i32* %3, align 4
  %144 = sext i32 %143 to i64
  %145 = getelementptr inbounds [100 x i8], [100 x i8]* %142, i64 0, i64 %144
  %146 = load i8, i8* %145, align 1
  %147 = sext i8 %146 to i32
  %148 = icmp slt i32 %147, 48
  br i1 %148, label %159, label %149

149:                                              ; preds = %139
  %150 = load i32, i32* %2, align 4
  %151 = sext i32 %150 to i64
  %152 = getelementptr inbounds [100 x [100 x i8]], [100 x [100 x i8]]* %5, i64 0, i64 %151
  %153 = load i32, i32* %3, align 4
  %154 = sext i32 %153 to i64
  %155 = getelementptr inbounds [100 x i8], [100 x i8]* %152, i64 0, i64 %154
  %156 = load i8, i8* %155, align 1
  %157 = sext i8 %156 to i32
  %158 = icmp sgt i32 %157, 57
  br i1 %158, label %159, label %171

159:                                              ; preds = %149, %139
  %160 = load i32, i32* %2, align 4
  %161 = sext i32 %160 to i64
  %162 = getelementptr inbounds [100 x [100 x i8]], [100 x [100 x i8]]* %5, i64 0, i64 %161
  %163 = load i32, i32* %3, align 4
  %164 = sext i32 %163 to i64
  %165 = getelementptr inbounds [100 x i8], [100 x i8]* %162, i64 0, i64 %164
  %166 = load i8, i8* %165, align 1
  %167 = sext i8 %166 to i32
  %168 = icmp ne i32 %167, 95
  br i1 %168, label %169, label %171

169:                                              ; preds = %159
  %170 = call i32 (i8*, ...) @printf(i8* getelementptr inbounds ([3 x i8], [3 x i8]* @.str.1, i64 0, i64 0))
  store i32 0, i32* %4, align 4
  br label %176

171:                                              ; preds = %159, %149, %129, %109
  br label %172

172:                                              ; preds = %171, %96
  br label %173

173:                                              ; preds = %172
  %174 = load i32, i32* %3, align 4
  %175 = add nsw i32 %174, 1
  store i32 %175, i32* %3, align 4
  br label %30

176:                                              ; preds = %169, %93, %30
  %177 = load i32, i32* %4, align 4
  %178 = icmp ne i32 %177, 0
  br i1 %178, label %179, label %181

179:                                              ; preds = %176
  %180 = call i32 (i8*, ...) @printf(i8* getelementptr inbounds ([3 x i8], [3 x i8]* @.str.2, i64 0, i64 0))
  br label %181

181:                                              ; preds = %179, %176
  br label %182

182:                                              ; preds = %181
  %183 = load i32, i32* %2, align 4
  %184 = add nsw i32 %183, 1
  store i32 %184, i32* %2, align 4
  br label %24

185:                                              ; preds = %24
  store i32 1, i32* %4, align 4
  store i32 0, i32* %3, align 4
  br label %186

186:                                              ; preds = %330, %185
  %187 = load i32, i32* %1, align 4
  %188 = sub nsw i32 %187, 1
  %189 = sext i32 %188 to i64
  %190 = getelementptr inbounds [100 x [100 x i8]], [100 x [100 x i8]]* %5, i64 0, i64 %189
  %191 = load i32, i32* %3, align 4
  %192 = sext i32 %191 to i64
  %193 = getelementptr inbounds [100 x i8], [100 x i8]* %190, i64 0, i64 %192
  %194 = load i8, i8* %193, align 1
  %195 = sext i8 %194 to i32
  %196 = icmp ne i32 %195, 0
  br i1 %196, label %197, label %333

197:                                              ; preds = %186
  %198 = load i32, i32* %3, align 4
  %199 = icmp eq i32 %198, 0
  br i1 %199, label %200, label %253

200:                                              ; preds = %197
  %201 = load i32, i32* %2, align 4
  %202 = sext i32 %201 to i64
  %203 = getelementptr inbounds [100 x [100 x i8]], [100 x [100 x i8]]* %5, i64 0, i64 %202
  %204 = load i32, i32* %3, align 4
  %205 = sext i32 %204 to i64
  %206 = getelementptr inbounds [100 x i8], [100 x i8]* %203, i64 0, i64 %205
  %207 = load i8, i8* %206, align 1
  %208 = sext i8 %207 to i32
  %209 = icmp sgt i32 %208, 122
  br i1 %209, label %220, label %210

210:                                              ; preds = %200
  %211 = load i32, i32* %2, align 4
  %212 = sext i32 %211 to i64
  %213 = getelementptr inbounds [100 x [100 x i8]], [100 x [100 x i8]]* %5, i64 0, i64 %212
  %214 = load i32, i32* %3, align 4
  %215 = sext i32 %214 to i64
  %216 = getelementptr inbounds [100 x i8], [100 x i8]* %213, i64 0, i64 %215
  %217 = load i8, i8* %216, align 1
  %218 = sext i8 %217 to i32
  %219 = icmp slt i32 %218, 97
  br i1 %219, label %220, label %252

220:                                              ; preds = %210, %200
  %221 = load i32, i32* %2, align 4
  %222 = sext i32 %221 to i64
  %223 = getelementptr inbounds [100 x [100 x i8]], [100 x [100 x i8]]* %5, i64 0, i64 %222
  %224 = load i32, i32* %3, align 4
  %225 = sext i32 %224 to i64
  %226 = getelementptr inbounds [100 x i8], [100 x i8]* %223, i64 0, i64 %225
  %227 = load i8, i8* %226, align 1
  %228 = sext i8 %227 to i32
  %229 = icmp sgt i32 %228, 90
  br i1 %229, label %240, label %230

230:                                              ; preds = %220
  %231 = load i32, i32* %2, align 4
  %232 = sext i32 %231 to i64
  %233 = getelementptr inbounds [100 x [100 x i8]], [100 x [100 x i8]]* %5, i64 0, i64 %232
  %234 = load i32, i32* %3, align 4
  %235 = sext i32 %234 to i64
  %236 = getelementptr inbounds [100 x i8], [100 x i8]* %233, i64 0, i64 %235
  %237 = load i8, i8* %236, align 1
  %238 = sext i8 %237 to i32
  %239 = icmp slt i32 %238, 65
  br i1 %239, label %240, label %252

240:                                              ; preds = %230, %220
  %241 = load i32, i32* %2, align 4
  %242 = sext i32 %241 to i64
  %243 = getelementptr inbounds [100 x [100 x i8]], [100 x [100 x i8]]* %5, i64 0, i64 %242
  %244 = load i32, i32* %3, align 4
  %245 = sext i32 %244 to i64
  %246 = getelementptr inbounds [100 x i8], [100 x i8]* %243, i64 0, i64 %245
  %247 = load i8, i8* %246, align 1
  %248 = sext i8 %247 to i32
  %249 = icmp ne i32 %248, 95
  br i1 %249, label %250, label %252

250:                                              ; preds = %240
  %251 = call i32 (i8*, ...) @printf(i8* getelementptr inbounds ([2 x i8], [2 x i8]* @.str.3, i64 0, i64 0))
  store i32 0, i32* %4, align 4
  br label %333

252:                                              ; preds = %240, %230, %210
  br label %253

253:                                              ; preds = %252, %197
  %254 = load i32, i32* %3, align 4
  %255 = icmp ne i32 %254, 0
  br i1 %255, label %256, label %329

256:                                              ; preds = %253
  %257 = load i32, i32* %2, align 4
  %258 = sext i32 %257 to i64
  %259 = getelementptr inbounds [100 x [100 x i8]], [100 x [100 x i8]]* %5, i64 0, i64 %258
  %260 = load i32, i32* %3, align 4
  %261 = sext i32 %260 to i64
  %262 = getelementptr inbounds [100 x i8], [100 x i8]* %259, i64 0, i64 %261
  %263 = load i8, i8* %262, align 1
  %264 = sext i8 %263 to i32
  %265 = icmp sgt i32 %264, 122
  br i1 %265, label %276, label %266

266:                                              ; preds = %256
  %267 = load i32, i32* %2, align 4
  %268 = sext i32 %267 to i64
  %269 = getelementptr inbounds [100 x [100 x i8]], [100 x [100 x i8]]* %5, i64 0, i64 %268
  %270 = load i32, i32* %3, align 4
  %271 = sext i32 %270 to i64
  %272 = getelementptr inbounds [100 x i8], [100 x i8]* %269, i64 0, i64 %271
  %273 = load i8, i8* %272, align 1
  %274 = sext i8 %273 to i32
  %275 = icmp slt i32 %274, 97
  br i1 %275, label %276, label %328

276:                                              ; preds = %266, %256
  %277 = load i32, i32* %2, align 4
  %278 = sext i32 %277 to i64
  %279 = getelementptr inbounds [100 x [100 x i8]], [100 x [100 x i8]]* %5, i64 0, i64 %278
  %280 = load i32, i32* %3, align 4
  %281 = sext i32 %280 to i64
  %282 = getelementptr inbounds [100 x i8], [100 x i8]* %279, i64 0, i64 %281
  %283 = load i8, i8* %282, align 1
  %284 = sext i8 %283 to i32
  %285 = icmp sgt i32 %284, 90
  br i1 %285, label %296, label %286

286:                                              ; preds = %276
  %287 = load i32, i32* %2, align 4
  %288 = sext i32 %287 to i64
  %289 = getelementptr inbounds [100 x [100 x i8]], [100 x [100 x i8]]* %5, i64 0, i64 %288
  %290 = load i32, i32* %3, align 4
  %291 = sext i32 %290 to i64
  %292 = getelementptr inbounds [100 x i8], [100 x i8]* %289, i64 0, i64 %291
  %293 = load i8, i8* %292, align 1
  %294 = sext i8 %293 to i32
  %295 = icmp slt i32 %294, 65
  br i1 %295, label %296, label %328

296:                                              ; preds = %286, %276
  %297 = load i32, i32* %2, align 4
  %298 = sext i32 %297 to i64
  %299 = getelementptr inbounds [100 x [100 x i8]], [100 x [100 x i8]]* %5, i64 0, i64 %298
  %300 = load i32, i32* %3, align 4
  %301 = sext i32 %300 to i64
  %302 = getelementptr inbounds [100 x i8], [100 x i8]* %299, i64 0, i64 %301
  %303 = load i8, i8* %302, align 1
  %304 = sext i8 %303 to i32
  %305 = icmp slt i32 %304, 48
  br i1 %305, label %316, label %306

306:                                              ; preds = %296
  %307 = load i32, i32* %2, align 4
  %308 = sext i32 %307 to i64
  %309 = getelementptr inbounds [100 x [100 x i8]], [100 x [100 x i8]]* %5, i64 0, i64 %308
  %310 = load i32, i32* %3, align 4
  %311 = sext i32 %310 to i64
  %312 = getelementptr inbounds [100 x i8], [100 x i8]* %309, i64 0, i64 %311
  %313 = load i8, i8* %312, align 1
  %314 = sext i8 %313 to i32
  %315 = icmp sgt i32 %314, 57
  br i1 %315, label %316, label %328

316:                                              ; preds = %306, %296
  %317 = load i32, i32* %2, align 4
  %318 = sext i32 %317 to i64
  %319 = getelementptr inbounds [100 x [100 x i8]], [100 x [100 x i8]]* %5, i64 0, i64 %318
  %320 = load i32, i32* %3, align 4
  %321 = sext i32 %320 to i64
  %322 = getelementptr inbounds [100 x i8], [100 x i8]* %319, i64 0, i64 %321
  %323 = load i8, i8* %322, align 1
  %324 = sext i8 %323 to i32
  %325 = icmp ne i32 %324, 95
  br i1 %325, label %326, label %328

326:                                              ; preds = %316
  %327 = call i32 (i8*, ...) @printf(i8* getelementptr inbounds ([2 x i8], [2 x i8]* @.str.3, i64 0, i64 0))
  store i32 0, i32* %4, align 4
  br label %333

328:                                              ; preds = %316, %306, %286, %266
  br label %329

329:                                              ; preds = %328, %253
  br label %330

330:                                              ; preds = %329
  %331 = load i32, i32* %3, align 4
  %332 = add nsw i32 %331, 1
  store i32 %332, i32* %3, align 4
  br label %186

333:                                              ; preds = %326, %250, %186
  %334 = load i32, i32* %4, align 4
  %335 = icmp ne i32 %334, 0
  br i1 %335, label %336, label %338

336:                                              ; preds = %333
  %337 = call i32 (i8*, ...) @printf(i8* getelementptr inbounds ([2 x i8], [2 x i8]* @.str.4, i64 0, i64 0))
  br label %338

338:                                              ; preds = %336, %333
  ret void
}